; Function Attrs: nounwind uwtable
define noundef ptr @Wlc_NtkTrace(ptr noundef %0, ptr noundef %1, i32 noundef %2, ptr noundef %3, ptr noundef %4) local_unnamed_addr #0 {
  %6 = getelementptr i8, ptr %0, i64 640
  %.val18 = load ptr, ptr %6, align 8, !tbaa !11
  %7 = ptrtoint ptr %1 to i64
  %8 = ptrtoint ptr %.val18 to i64
  %9 = sub i64 %7, %8
  %10 = sdiv exact i64 %9, 24
  %11 = getelementptr i8, ptr %0, i64 760
  %.val = load ptr, ptr %11, align 8, !tbaa !3
  %sext = shl i64 %10, 32
  %12 = ashr exact i64 %sext, 30
  %13 = getelementptr inbounds i8, ptr %.val, i64 %12
  %14 = load i32, ptr %13, align 4, !tbaa !10
  %15 = tail call noalias dereferenceable_or_null(16) ptr @malloc(i64 noundef 16) #25
  %16 = getelementptr inbounds nuw i8, ptr %15, i64 4
  store i32 0, ptr %16, align 4, !tbaa !26
  store i32 16, ptr %15, align 8, !tbaa !25
  %17 = tail call noalias dereferenceable_or_null(64) ptr @malloc(i64 noundef 64) #25
  %18 = getelementptr inbounds nuw i8, ptr %15, i64 8
  store ptr %17, ptr %18, align 8, !tbaa !3
  %19 = getelementptr inbounds nuw i8, ptr %1, i64 4
  %20 = load i32, ptr %19, align 4, !tbaa !20
  %21 = icmp ugt i32 %20, 2
  br i1 %21, label %Wlc_ObjHasArray.exit.thread.i.i.i, label %22

22:                                               ; preds = %5
  %23 = load i16, ptr %1, align 8
  %24 = and i16 %23, 63
  switch i16 %24, label %27 [
    i16 6, label %Wlc_ObjHasArray.exit.thread.i.i.i
    i16 22, label %Wlc_ObjHasArray.exit.thread.i.i.i
  ]

Wlc_ObjHasArray.exit.thread.i.i.i:                ; preds = %22, %22, %5
  %25 = getelementptr inbounds nuw i8, ptr %1, i64 16
  %26 = load ptr, ptr %25, align 8, !tbaa !22
  br label %Wlc_ObjFanin0.exit

27:                                               ; preds = %22
  %28 = getelementptr inbounds nuw i8, ptr %1, i64 16
  br label %Wlc_ObjFanin0.exit

Wlc_ObjFanin0.exit:                               ; preds = %Wlc_ObjHasArray.exit.thread.i.i.i, %27
  %29 = phi ptr [ %26, %Wlc_ObjHasArray.exit.thread.i.i.i ], [ %28, %27 ]
  %30 = load i32, ptr %29, align 4, !tbaa !10
  %31 = sext i32 %30 to i64
  %32 = getelementptr inbounds %struct.Wlc_Obj_t_, ptr %.val18, i64 %31
  %33 = getelementptr i8, ptr %3, i64 4
  %.val19 = load i32, ptr %33, align 4, !tbaa !26
  %34 = mul nsw i32 %.val19, %2
  %35 = add nsw i32 %34, %14
  %36 = mul nsw i32 %35, 3
  %37 = getelementptr i8, ptr %4, i64 8
  %.val20 = load ptr, ptr %37, align 8, !tbaa !102
  %38 = sext i32 %36 to i64
  %39 = getelementptr i64, ptr %.val20, i64 %38
  %40 = getelementptr i8, ptr %39, i64 8
  %41 = load i64, ptr %40, align 8, !tbaa !106
  tail call void @Wlc_NtkTrace_rec(ptr noundef nonnull %0, ptr noundef %32, i32 noundef %2, ptr noundef %3, ptr noundef %4, i64 noundef %41, ptr noundef nonnull %15)
  %42 = load i32, ptr %16, align 4, !tbaa !26
  %43 = load i32, ptr %15, align 8, !tbaa !25
  %44 = icmp eq i32 %42, %43
  br i1 %44, label %45, label %.Vec_IntGrow.exit10_crit_edge.i

.Vec_IntGrow.exit10_crit_edge.i:                  ; preds = %Wlc_ObjFanin0.exit
  %.pre.i = load ptr, ptr %18, align 8, !tbaa !3
  br label %Vec_IntPush.exit

45:                                               ; preds = %Wlc_ObjFanin0.exit
  %46 = icmp slt i32 %42, 16
  br i1 %46, label %47, label %54

47:                                               ; preds = %45
  %48 = load ptr, ptr %18, align 8, !tbaa !3
  %.not9.i.i = icmp eq ptr %48, null
  br i1 %.not9.i.i, label %51, label %49

49:                                               ; preds = %47
  %50 = tail call dereferenceable_or_null(64) ptr @realloc(ptr noundef nonnull %48, i64 noundef 64) #27
  br label %Vec_IntGrow.exit.i

51:                                               ; preds = %47
  %52 = tail call noalias dereferenceable_or_null(64) ptr @malloc(i64 noundef 64) #25
  br label %Vec_IntGrow.exit.i

Vec_IntGrow.exit.i:                               ; preds = %51, %49
  %53 = phi ptr [ %50, %49 ], [ %52, %51 ]
  store ptr %53, ptr %18, align 8, !tbaa !3
  store i32 16, ptr %15, align 8, !tbaa !25
  br label %Vec_IntPush.exit

54:                                               ; preds = %45
  %55 = shl nuw nsw i32 %42, 1
  %56 = load ptr, ptr %18, align 8, !tbaa !3
  %.not9.i9.i = icmp eq ptr %56, null
  %57 = zext nneg i32 %55 to i64
  %58 = shl nuw nsw i64 %57, 2
  br i1 %.not9.i9.i, label %61, label %59

59:                                               ; preds = %54
  %60 = tail call ptr @realloc(ptr noundef nonnull %56, i64 noundef %58) #27
  br label %63

61:                                               ; preds = %54
  %62 = tail call noalias ptr @malloc(i64 noundef %58) #25
  br label %63

63:                                               ; preds = %61, %59
  %64 = phi ptr [ %60, %59 ], [ %62, %61 ]
  store ptr %64, ptr %18, align 8, !tbaa !3
  store i32 %55, ptr %15, align 8, !tbaa !25
  br label %Vec_IntPush.exit

Vec_IntPush.exit:                                 ; preds = %.Vec_IntGrow.exit10_crit_edge.i, %Vec_IntGrow.exit.i, %63
  %65 = phi ptr [ %.pre.i, %.Vec_IntGrow.exit10_crit_edge.i ], [ %64, %63 ], [ %53, %Vec_IntGrow.exit.i ]
  %66 = trunc i64 %10 to i32
  %67 = shl i32 %66, 11
  %68 = shl i32 %2, 1
  %69 = or i32 %67, %68
  %70 = load i32, ptr %16, align 4, !tbaa !26
  %71 = add nsw i32 %70, 1
  store i32 %71, ptr %16, align 4, !tbaa !26
  %72 = sext i32 %70 to i64
  %73 = getelementptr inbounds i32, ptr %65, i64 %72
  store i32 %69, ptr %73, align 4, !tbaa !10
  ret ptr %15
}